Certificate:
    Data:
        Version: 3 (0x2)
        Serial Number: 1 (0x1)
        Signature Algorithm: SM2-with-SM3
        Issuer: C=CN, ST=Zhejiang, O=Nuowei, OU=ursa_sm2, CN=node01_sm2.nuowei.com/emailAddress=node01_sm2@nuowei.com
        Validity
            Not Before: Apr 23 07:56:54 2025 GMT
            Not After : Jan 24 07:56:54 2126 GMT
        Subject: C=CN, ST=Zhejiang, O=Nuowei, OU=ursa_sm2, CN=user01_sm2.nuowei.com/emailAddress=user01_sm2@nuowei.com
        Subject Public Key Info:
            Public Key Algorithm: id-ecPublicKey
                Public-Key: (256 bit)
                pub:
                    04:27:d6:cc:2e:d8:ce:44:0a:1c:10:99:8a:a9:30:
                    4c:7d:98:40:83:0c:9b:20:20:48:bb:cc:83:62:a0:
                    e6:1e:c2:6a:e4:c3:5d:08:90:12:4f:f1:af:70:e8:
                    0d:5f:66:9f:3c:7e:16:78:48:98:25:1b:6c:cf:0a:
                    f0:e2:f2:c0:9b
                ASN1 OID: SM2
        X509v3 extensions:
            X509v3 Basic Constraints: 
                CA:FALSE
            Netscape Cert Type: 
                SSL Client, S/MIME
            Netscape Comment: 
                OpenSSL Generated Client Certificate
            X509v3 Subject Key Identifier: 
                B0:F4:E5:B8:BB:D6:57:E0:0B:BB:F3:3B:12:1E:CA:91:8F:3A:21:99
            X509v3 Authority Key Identifier: 
                keyid:45:CC:ED:A6:94:D0:07:6F:58:C9:29:66:63:7E:A2:57:C0:51:6B:4F

            X509v3 Key Usage: critical
                Digital Signature, Non Repudiation, Key Encipherment
            X509v3 Extended Key Usage: 
                TLS Web Client Authentication, E-mail Protection
    Signature Algorithm: SM2-with-SM3
         30:45:02:20:48:bb:c4:33:cb:27:15:5c:48:a5:6b:6f:d2:e2:
         49:b8:96:d6:a8:54:83:94:dd:bf:e4:ef:26:1e:e8:af:91:a0:
         02:21:00:99:2a:02:4c:4c:33:f4:d7:41:7c:71:fe:20:fa:9e:
         92:c2:89:2e:f3:51:98:d7:b9:e8:3b:91:23:e7:c7:7b:a4
-----BEGIN CERTIFICATE-----
MIICzTCCAnOgAwIBAgIBATAKBggqgRzPVQGDdTCBijELMAkGA1UEBhMCQ04xETAP
BgNVBAgMCFpoZWppYW5nMQ8wDQYDVQQKDAZOdW93ZWkxETAPBgNVBAsMCHVyc2Ff
c20yMR4wHAYDVQQDDBVub2RlMDFfc20yLm51b3dlaS5jb20xJDAiBgkqhkiG9w0B
CQEWFW5vZGUwMV9zbTJAbnVvd2VpLmNvbTAgFw0yNTA0MjMwNzU2NTRaGA8yMTI2
MDEyNDA3NTY1NFowgYoxCzAJBgNVBAYTAkNOMREwDwYDVQQIDAhaaGVqaWFuZzEP
MA0GA1UECgwGTnVvd2VpMREwDwYDVQQLDAh1cnNhX3NtMjEeMBwGA1UEAwwVdXNl
cjAxX3NtMi5udW93ZWkuY29tMSQwIgYJKoZIhvcNAQkBFhV1c2VyMDFfc20yQG51
b3dlaS5jb20wWTATBgcqhkjOPQIBBggqgRzPVQGCLQNCAAQn1swu2M5EChwQmYqp
MEx9mECDDJsgIEi7zINioOYewmrkw10IkBJP8a9w6A1fZp88fhZ4SJglG2zPCvDi
8sCbo4HFMIHCMAkGA1UdEwQCMAAwEQYJYIZIAYb4QgEBBAQDAgWgMDMGCWCGSAGG
+EIBDQQmFiRPcGVuU1NMIEdlbmVyYXRlZCBDbGllbnQgQ2VydGlmaWNhdGUwHQYD
VR0OBBYEFLD05bi71lfgC7vzOxIeypGPOiGZMB8GA1UdIwQYMBaAFEXM7aaU0Adv
WMkpZmN+olfAUWtPMA4GA1UdDwEB/wQEAwIF4DAdBgNVHSUEFjAUBggrBgEFBQcD
AgYIKwYBBQUHAwQwCgYIKoEcz1UBg3UDSAAwRQIgSLvEM8snFVxIpWtv0uJJuJbW
qFSDlN2/5O8mHuivkaACIQCZKgJMTDP010F8cf4g+p6Swoku81GY17noO5Ej58d7
pA==
-----END CERTIFICATE-----
