Certificate:
    Data:
        Version: 3 (0x2)
        Serial Number: 1 (0x1)
        Signature Algorithm: sha256WithRSAEncryption
        Issuer: C=CN, ST=Zhejiang, O=Nuowei, OU=ursa, CN=ursa.nuowei.com/emailAddress=ursa@nuowei.com
        Validity
            Not Before: Apr 23 06:10:34 2025 GMT
            Not After : Jan 24 06:10:34 2126 GMT
        Subject: C=CN, ST=Zhejiang, O=Nuowei, OU=ursa, CN=node01.nuowei.com/emailAddress=node01@nuowei.com
        Subject Public Key Info:
            Public Key Algorithm: rsaEncryption
                RSA Public-Key: (2048 bit)
                Modulus:
                    00:dc:74:b8:25:dd:24:a6:be:e6:2e:61:1b:c0:2c:
                    1c:7d:2a:7a:d6:5d:8e:0f:bc:0d:ff:d3:50:c4:13:
                    00:85:e2:c5:a2:cd:fb:1e:ff:ee:5f:8e:75:91:08:
                    ab:e2:8a:6c:2a:8d:82:92:84:87:ce:37:a7:d9:18:
                    ce:65:08:d0:37:69:4f:a9:0d:43:dc:b3:53:a9:92:
                    7f:35:08:f2:97:35:5f:31:b1:a7:5f:86:c4:e8:fd:
                    cd:bc:eb:3f:54:06:db:ce:f4:f9:16:1e:c9:1a:d7:
                    46:8f:23:89:88:94:e3:af:67:07:f4:11:14:c4:e1:
                    14:e1:be:5a:7e:ff:68:d4:56:3c:17:55:4a:d0:86:
                    cb:82:92:88:33:ba:b4:06:e3:16:e1:8b:90:d4:d3:
                    a3:d9:aa:05:0a:37:a7:5a:ee:8d:74:64:04:1c:48:
                    10:54:06:ef:a4:73:30:62:96:23:82:17:cc:ab:b7:
                    b2:a1:17:e9:b9:5e:53:d3:60:c8:a7:60:4f:e1:78:
                    19:8f:74:90:7e:0b:0e:3f:47:c6:1b:f4:02:68:f4:
                    b6:97:e0:0d:02:49:35:e6:9f:f2:db:3e:54:a5:73:
                    7c:be:f2:99:d2:8d:cc:83:4b:82:e3:29:9d:0f:44:
                    9c:3b:2f:9b:ec:d8:1a:97:6c:26:20:fe:69:28:31:
                    99:c5
                Exponent: 65537 (0x10001)
        X509v3 extensions:
            X509v3 Basic Constraints: 
                CA:FALSE
            Netscape Comment: 
                OpenSSL Generated Certificate
            X509v3 Subject Key Identifier: 
                38:22:60:2C:35:90:54:A2:AF:CA:4D:FF:6F:E5:51:C0:CE:4A:F8:A1
            X509v3 Authority Key Identifier: 
                keyid:67:24:51:65:6B:CF:BB:46:29:2B:2E:8F:1F:78:43:28:3B:53:1C:B8

    Signature Algorithm: sha256WithRSAEncryption
         16:ac:25:26:46:6d:cb:49:4c:d8:b5:5a:db:28:89:61:fc:c2:
         5a:05:1c:54:70:0f:c6:0c:81:bf:11:51:ca:f0:32:bc:14:51:
         48:23:02:8c:f2:56:13:ad:c1:f9:42:db:d7:9d:69:39:04:59:
         e9:16:75:35:1f:a9:3f:3b:58:74:8a:db:ad:17:eb:d8:2f:78:
         eb:35:de:88:17:ad:15:8f:16:fb:00:82:42:87:8e:15:48:b3:
         5a:67:b2:d2:a4:75:ac:67:69:f6:2d:57:51:34:87:fb:57:98:
         fb:a1:e9:fb:c6:0e:d6:ef:cd:c2:36:b3:60:6f:a0:e0:38:8d:
         8e:fa:d9:bb:58:21:ca:f9:ef:89:a1:27:ec:5c:84:7b:7e:d9:
         31:33:76:7c:c5:86:0d:41:70:8e:99:d8:ab:35:24:14:62:b9:
         9d:59:02:3f:50:de:f4:57:7d:8b:ce:2e:69:f4:5a:2c:fe:a3:
         bc:8d:ea:42:87:f3:9d:96:18:47:9f:4c:dd:14:fd:37:05:13:
         66:31:b2:92:e9:5c:22:df:ff:f6:dc:00:b6:65:d1:95:76:57:
         09:cb:12:9b:d7:cb:f4:c8:65:79:8f:81:fb:a4:e0:66:47:76:
         0d:af:29:c2:6d:16:ef:39:0e:61:cf:96:9f:39:8b:20:11:08:
         1f:f7:08:30
-----BEGIN CERTIFICATE-----
MIID8DCCAtigAwIBAgIBATANBgkqhkiG9w0BAQsFADB6MQswCQYDVQQGEwJDTjER
MA8GA1UECAwIWmhlamlhbmcxDzANBgNVBAoMBk51b3dlaTENMAsGA1UECwwEdXJz
YTEYMBYGA1UEAwwPdXJzYS5udW93ZWkuY29tMR4wHAYJKoZIhvcNAQkBFg91cnNh
QG51b3dlaS5jb20wIBcNMjUwNDIzMDYxMDM0WhgPMjEyNjAxMjQwNjEwMzRaMH4x
CzAJBgNVBAYTAkNOMREwDwYDVQQIDAhaaGVqaWFuZzEPMA0GA1UECgwGTnVvd2Vp
MQ0wCwYDVQQLDAR1cnNhMRowGAYDVQQDDBFub2RlMDEubnVvd2VpLmNvbTEgMB4G
CSqGSIb3DQEJARYRbm9kZTAxQG51b3dlaS5jb20wggEiMA0GCSqGSIb3DQEBAQUA
A4IBDwAwggEKAoIBAQDcdLgl3SSmvuYuYRvALBx9KnrWXY4PvA3/01DEEwCF4sWi
zfse/+5fjnWRCKviimwqjYKShIfON6fZGM5lCNA3aU+pDUPcs1Opkn81CPKXNV8x
sadfhsTo/c286z9UBtvO9PkWHska10aPI4mIlOOvZwf0ERTE4RThvlp+/2jUVjwX
VUrQhsuCkogzurQG4xbhi5DU06PZqgUKN6da7o10ZAQcSBBUBu+kczBiliOCF8yr
t7KhF+m5XlPTYMinYE/heBmPdJB+Cw4/R8Yb9AJo9LaX4A0CSTXmn/LbPlSlc3y+
8pnSjcyDS4LjKZ0PRJw7L5vs2BqXbCYg/mkoMZnFAgMBAAGjezB5MAkGA1UdEwQC
MAAwLAYJYIZIAYb4QgENBB8WHU9wZW5TU0wgR2VuZXJhdGVkIENlcnRpZmljYXRl
MB0GA1UdDgQWBBQ4ImAsNZBUoq/KTf9v5VHAzkr4oTAfBgNVHSMEGDAWgBRnJFFl
a8+7RikrLo8feEMoO1McuDANBgkqhkiG9w0BAQsFAAOCAQEAFqwlJkZty0lM2LVa
2yiJYfzCWgUcVHAPxgyBvxFRyvAyvBRRSCMCjPJWE63B+ULb151pOQRZ6RZ1NR+p
PztYdIrbrRfr2C946zXeiBetFY8W+wCCQoeOFUizWmey0qR1rGdp9i1XUTSH+1eY
+6Hp+8YO1u/NwjazYG+g4DiNjvrZu1ghyvnviaEn7FyEe37ZMTN2fMWGDUFwjpnY
qzUkFGK5nVkCP1De9Fd9i84uafRaLP6jvI3qQofznZYYR59M3RT9NwUTZjGykulc
It//9twAtmXRlXZXCcsSm9fL9MhleY+B+6TgZkd2Da8pwm0W7zkOYc+WnzmLIBEI
H/cIMA==
-----END CERTIFICATE-----
