Certificate:
    Data:
        Version: 3 (0x2)
        Serial Number: 1 (0x1)
        Signature Algorithm: sha256WithRSAEncryption
        Issuer: C=CN, ST=Zhejiang, O=Nuowei, OU=ursa, CN=node01.nuowei.com/emailAddress=node01@nuowei.com
        Validity
            Not Before: Apr 23 06:11:00 2025 GMT
            Not After : Jul  8 06:11:00 2125 GMT
        Subject: C=CN, ST=Zhejiang, O=Nuowei, OU=ursa, CN=user01.nuowei.com/emailAddress=user01@nuowei.com
        Subject Public Key Info:
            Public Key Algorithm: rsaEncryption
                RSA Public-Key: (2048 bit)
                Modulus:
                    00:d8:8c:44:28:fb:22:9f:f0:8f:5f:65:65:a5:3c:
                    63:69:cc:0e:1e:df:a7:4c:0c:88:88:86:b0:a0:3d:
                    4f:29:36:60:e3:1a:7a:34:95:80:69:52:13:61:86:
                    dc:a3:78:62:e8:6e:c9:0e:72:d5:34:c7:b4:ee:3e:
                    29:0c:03:0d:53:67:c2:2b:0e:f8:91:ab:8b:11:72:
                    b3:03:3a:ed:18:9e:db:4c:e1:8c:e6:21:d8:9b:40:
                    00:1f:69:88:13:b8:fa:c5:9d:15:29:02:de:f0:d1:
                    54:01:0e:88:fd:21:49:4f:75:0c:c0:d2:d1:76:d8:
                    01:96:46:15:c9:77:ff:3c:a6:a9:03:59:41:c4:86:
                    81:99:d0:68:81:0d:23:ae:35:69:05:af:de:31:df:
                    a8:3f:24:a1:8a:82:cf:93:4a:83:ba:4b:b8:68:7c:
                    d6:7c:ac:4e:92:4c:26:c4:5b:c5:bf:1d:95:95:5a:
                    21:e0:97:ee:a8:b0:72:9d:b8:32:e8:13:3f:72:b3:
                    0b:28:91:d4:ac:f6:ef:23:6f:b5:92:85:bc:16:3b:
                    52:7b:30:9c:20:23:ae:32:20:eb:41:42:7b:1f:2f:
                    ec:3e:c9:bc:56:c3:c5:13:f1:a9:6c:9b:27:78:a5:
                    40:5c:64:24:49:a0:6e:95:16:55:ec:10:74:7c:c0:
                    f7:0f
                Exponent: 65537 (0x10001)
        X509v3 extensions:
            X509v3 Basic Constraints: 
                CA:FALSE
            Netscape Comment: 
                OpenSSL Generated Certificate
            X509v3 Subject Key Identifier: 
                E4:A0:23:D5:49:BA:75:BE:74:13:C4:52:C3:4D:B0:55:81:63:F1:2F
            X509v3 Authority Key Identifier: 
                keyid:38:22:60:2C:35:90:54:A2:AF:CA:4D:FF:6F:E5:51:C0:CE:4A:F8:A1

    Signature Algorithm: sha256WithRSAEncryption
         26:da:38:82:97:c9:66:f8:d8:66:f6:a2:a7:81:09:a8:2c:0c:
         3b:a2:22:65:7c:9c:3d:cc:2c:3f:95:ae:8b:dd:ad:77:aa:da:
         8f:f3:d2:d3:f3:04:f2:ac:e2:04:21:5b:2c:19:14:ee:13:51:
         60:d2:01:b4:72:a8:6c:c0:d2:0d:51:4a:e6:12:de:d8:87:fd:
         7e:ad:0a:68:13:5e:22:88:cc:c1:51:0e:80:ce:54:5f:18:3b:
         e0:9b:56:57:b7:79:20:89:d2:7a:3f:1f:7a:7f:38:3e:c5:2c:
         4b:ff:a8:d6:af:1f:e4:5b:d4:29:3a:cc:81:96:d8:ad:e6:d6:
         fa:c5:2c:cf:ff:e1:d8:2f:b7:0b:df:f9:38:21:73:21:e7:20:
         6f:96:8c:3e:9b:56:7b:78:1a:36:67:aa:96:a4:47:5e:dc:03:
         15:3c:6d:fa:16:43:c7:0b:83:03:bf:71:92:da:29:ba:41:41:
         2a:33:23:0d:77:e3:b2:0a:14:af:4b:f3:94:38:3e:e2:cf:24:
         41:84:e2:46:f9:c6:d6:c6:80:26:d6:4e:22:9f:63:2f:cf:2d:
         be:2d:f9:c5:64:74:13:f4:41:25:d0:e9:1f:e8:43:4f:ab:f1:
         35:ea:7d:66:94:cb:70:6a:bd:63:f4:d9:f4:55:aa:97:38:2b:
         c8:ec:62:28
-----BEGIN CERTIFICATE-----
MIID9DCCAtygAwIBAgIBATANBgkqhkiG9w0BAQsFADB+MQswCQYDVQQGEwJDTjER
MA8GA1UECAwIWmhlamlhbmcxDzANBgNVBAoMBk51b3dlaTENMAsGA1UECwwEdXJz
YTEaMBgGA1UEAwwRbm9kZTAxLm51b3dlaS5jb20xIDAeBgkqhkiG9w0BCQEWEW5v
ZGUwMUBudW93ZWkuY29tMCAXDTI1MDQyMzA2MTEwMFoYDzIxMjUwNzA4MDYxMTAw
WjB+MQswCQYDVQQGEwJDTjERMA8GA1UECAwIWmhlamlhbmcxDzANBgNVBAoMBk51
b3dlaTENMAsGA1UECwwEdXJzYTEaMBgGA1UEAwwRdXNlcjAxLm51b3dlaS5jb20x
IDAeBgkqhkiG9w0BCQEWEXVzZXIwMUBudW93ZWkuY29tMIIBIjANBgkqhkiG9w0B
AQEFAAOCAQ8AMIIBCgKCAQEA2IxEKPsin/CPX2VlpTxjacwOHt+nTAyIiIawoD1P
KTZg4xp6NJWAaVITYYbco3hi6G7JDnLVNMe07j4pDAMNU2fCKw74kauLEXKzAzrt
GJ7bTOGM5iHYm0AAH2mIE7j6xZ0VKQLe8NFUAQ6I/SFJT3UMwNLRdtgBlkYVyXf/
PKapA1lBxIaBmdBogQ0jrjVpBa/eMd+oPyShioLPk0qDuku4aHzWfKxOkkwmxFvF
vx2VlVoh4JfuqLBynbgy6BM/crMLKJHUrPbvI2+1koW8FjtSezCcICOuMiDrQUJ7
Hy/sPsm8VsPFE/GpbJsneKVAXGQkSaBulRZV7BB0fMD3DwIDAQABo3sweTAJBgNV
HRMEAjAAMCwGCWCGSAGG+EIBDQQfFh1PcGVuU1NMIEdlbmVyYXRlZCBDZXJ0aWZp
Y2F0ZTAdBgNVHQ4EFgQU5KAj1Um6db50E8RSw02wVYFj8S8wHwYDVR0jBBgwFoAU
OCJgLDWQVKKvyk3/b+VRwM5K+KEwDQYJKoZIhvcNAQELBQADggEBACbaOIKXyWb4
2Gb2oqeBCagsDDuiImV8nD3MLD+VrovdrXeq2o/z0tPzBPKs4gQhWywZFO4TUWDS
AbRyqGzA0g1RSuYS3tiH/X6tCmgTXiKIzMFRDoDOVF8YO+CbVle3eSCJ0no/H3p/
OD7FLEv/qNavH+Rb1Ck6zIGW2K3m1vrFLM//4dgvtwvf+TghcyHnIG+WjD6bVnt4
GjZnqpakR17cAxU8bfoWQ8cLgwO/cZLaKbpBQSozIw1347IKFK9L85Q4PuLPJEGE
4kb5xtbGgCbWTiKfYy/PLb4t+cVkdBP0QSXQ6R/oQ0+r8TXqfWaUy3BqvWP02fRV
qpc4K8jsYig=
-----END CERTIFICATE-----
