Certificate:
    Data:
        Version: 3 (0x2)
        Serial Number: 2 (0x2)
        Signature Algorithm: SM2-with-SM3
        Issuer: C=CN, ST=Zhejiang, O=Nuowei, OU=Certificate Authority, CN=ca.nuowei.com/emailAddress=ca@nuowei.com
        Validity
            Not Before: Apr 23 07:56:43 2025 GMT
            Not After : Aug 12 07:56:43 2126 GMT
        Subject: C=CN, ST=Zhejiang, O=Nuowei, OU=ursa_sm2, CN=ursa_sm2.nuowei.com/emailAddress=ursa_sm2@nuowei.com
        Subject Public Key Info:
            Public Key Algorithm: id-ecPublicKey
                Public-Key: (256 bit)
                pub:
                    04:00:66:e4:cf:40:5b:16:2f:4c:84:f0:43:43:a6:
                    e9:d1:9f:4a:8d:9c:4e:ce:29:2e:aa:14:12:d7:e1:
                    33:da:81:4c:29:a7:f7:c2:1c:32:1e:d9:0a:35:74:
                    cd:76:c8:82:92:c5:06:15:75:5e:4b:f1:81:9a:7f:
                    a6:09:fa:d1:44
                ASN1 OID: SM2
        X509v3 extensions:
            X509v3 Subject Key Identifier: 
                9E:D3:36:58:E6:AC:3B:E2:AE:AC:91:D4:E8:6C:BC:50:B7:A5:27:DE
            X509v3 Authority Key Identifier: 
                keyid:0E:A8:FE:F5:57:6C:45:4A:99:C5:B7:A3:A0:9A:BC:02:4F:68:8E:3F

            X509v3 Basic Constraints: critical
                CA:TRUE, pathlen:0
            X509v3 Key Usage: critical
                Digital Signature, Certificate Sign, CRL Sign
    Signature Algorithm: SM2-with-SM3
         30:45:02:21:00:a3:3a:f6:44:00:32:38:02:e2:14:3b:8f:2a:
         25:72:5a:09:c0:91:14:a0:bc:7a:7a:75:32:98:99:c6:0d:b9:
         8f:02:20:3e:5c:c3:6c:9b:15:4c:bb:19:3e:3f:c3:36:29:71:
         1f:b2:c9:75:e2:0b:db:16:73:c0:00:5b:bb:ca:20:0b:69
-----BEGIN CERTIFICATE-----
MIICZjCCAgygAwIBAgIBAjAKBggqgRzPVQGDdTCBhzELMAkGA1UEBhMCQ04xETAP
BgNVBAgMCFpoZWppYW5nMQ8wDQYDVQQKDAZOdW93ZWkxHjAcBgNVBAsMFUNlcnRp
ZmljYXRlIEF1dGhvcml0eTEWMBQGA1UEAwwNY2EubnVvd2VpLmNvbTEcMBoGCSqG
SIb3DQEJARYNY2FAbnVvd2VpLmNvbTAgFw0yNTA0MjMwNzU2NDNaGA8yMTI2MDgx
MjA3NTY0M1owgYYxCzAJBgNVBAYTAkNOMREwDwYDVQQIDAhaaGVqaWFuZzEPMA0G
A1UECgwGTnVvd2VpMREwDwYDVQQLDAh1cnNhX3NtMjEcMBoGA1UEAwwTdXJzYV9z
bTIubnVvd2VpLmNvbTEiMCAGCSqGSIb3DQEJARYTdXJzYV9zbTJAbnVvd2VpLmNv
bTBZMBMGByqGSM49AgEGCCqBHM9VAYItA0IABABm5M9AWxYvTITwQ0Om6dGfSo2c
Ts4pLqoUEtfhM9qBTCmn98IcMh7ZCjV0zXbIgpLFBhV1XkvxgZp/pgn60USjZjBk
MB0GA1UdDgQWBBSe0zZY5qw74q6skdTobLxQt6Un3jAfBgNVHSMEGDAWgBQOqP71
V2xFSpnFt6OgmrwCT2iOPzASBgNVHRMBAf8ECDAGAQH/AgEAMA4GA1UdDwEB/wQE
AwIBhjAKBggqgRzPVQGDdQNIADBFAiEAozr2RAAyOALiFDuPKiVyWgnAkRSgvHp6
dTKYmcYNuY8CID5cw2ybFUy7GT4/wzYpcR+yyXXiC9sWc8AAW7vKIAtp
-----END CERTIFICATE-----
