Certificate:
    Data:
        Version: 3 (0x2)
        Serial Number: 1 (0x1)
        Signature Algorithm: sha256WithRSAEncryption
        Issuer: C=CN, ST=Zhejiang, O=Nuowei, OU=ursa, CN=ursa.nuowei.com/emailAddress=ursa@nuowei.com
        Validity
            Not Before: Apr 22 08:08:09 2025 GMT
            Not After : Jan 23 08:08:09 2126 GMT
        Subject: C=CN, ST=Zhejiang, O=Nuowei, OU=ursa, CN=node01.nuowei.com/emailAddress=node01@nuowei.com
        Subject Public Key Info:
            Public Key Algorithm: rsaEncryption
                RSA Public-Key: (2048 bit)
                Modulus:
                    00:b8:a3:71:5e:77:f8:9e:ea:e9:0f:5e:0f:60:ca:
                    9a:e4:4c:8a:ae:d0:95:c0:9b:fa:e1:84:dc:39:de:
                    cf:b8:ef:55:7e:7d:c2:7d:b7:7b:34:63:8e:c1:70:
                    3f:ec:55:28:02:41:73:31:73:79:84:b3:fc:61:59:
                    19:28:44:c9:c5:94:ed:aa:43:ad:ed:86:f7:c4:a3:
                    17:1b:fd:51:0c:3f:f0:eb:2d:e1:35:37:5a:e2:14:
                    db:64:a8:43:28:8c:e3:f7:c1:f4:74:95:01:79:32:
                    94:8d:d7:48:2a:8a:7d:77:9d:d2:7b:f9:30:ac:25:
                    8c:e0:fe:d8:98:07:fd:d0:ff:e3:85:5a:78:73:aa:
                    9d:35:e9:d8:f9:0a:aa:aa:23:b6:f6:2f:3b:51:ab:
                    96:ee:b5:71:94:d6:ce:19:70:0a:d7:df:57:6f:3e:
                    07:f8:27:76:8c:4d:a7:b2:a8:be:7f:92:21:3e:25:
                    c3:1c:2d:1d:55:d4:10:b0:e7:27:00:00:0e:8b:7a:
                    a5:20:bb:92:29:34:8c:a6:63:3b:7e:8f:65:3a:41:
                    6e:04:c4:15:86:96:0b:16:e5:b1:f4:0c:c3:cd:ad:
                    90:85:e8:0c:6e:8c:71:aa:bd:77:97:30:b1:77:d6:
                    24:1d:f8:7f:2d:2e:ba:5b:41:ac:fb:86:72:a1:16:
                    b4:2d
                Exponent: 65537 (0x10001)
        X509v3 extensions:
            X509v3 Basic Constraints: 
                CA:FALSE
            Netscape Comment: 
                OpenSSL Generated Certificate
            X509v3 Subject Key Identifier: 
                D8:81:9C:AF:08:C5:F0:24:F8:3E:95:9B:0F:40:E5:AA:D0:27:04:53
            X509v3 Authority Key Identifier: 
                keyid:0A:D9:B5:2F:D2:9A:8E:07:4F:18:D0:1B:3F:5A:D6:75:F1:1D:5E:79

    Signature Algorithm: sha256WithRSAEncryption
         4e:80:e1:fe:3d:3e:72:76:cd:89:71:d0:b5:d5:1f:80:08:27:
         eb:36:4e:7d:71:5d:67:b2:17:02:8b:32:a6:4e:20:94:c5:ce:
         d7:9c:9d:e2:e0:01:d8:95:81:83:3c:2e:a4:b8:f2:95:13:78:
         2a:48:b5:e0:2a:12:fa:43:14:94:c5:a6:e9:40:3c:2e:99:c2:
         2c:62:2b:4f:0c:1e:ac:63:af:3c:3b:29:98:18:1b:f5:0e:dd:
         16:e0:26:1c:45:e8:34:51:78:b2:94:66:75:21:6b:91:f5:65:
         5f:bd:ae:2f:37:0c:21:b7:2b:89:c0:7e:1f:04:36:86:fb:3b:
         ce:22:50:14:e7:58:04:b2:f2:88:f5:e8:cc:44:9d:4d:27:89:
         35:d0:9b:e2:af:00:8e:59:d3:7b:4d:25:ef:95:66:78:ca:4b:
         d0:67:4f:78:9c:e4:be:44:5f:4b:0d:a5:bd:46:02:80:0f:7f:
         7e:0b:bb:b7:4c:ca:b9:1c:27:de:60:12:ae:46:b3:d0:bb:f0:
         df:50:68:38:97:61:38:db:d3:06:7c:d2:47:04:18:d8:ee:a4:
         d6:43:34:ec:01:17:40:f6:2d:51:76:8b:c1:c6:75:ea:2a:22:
         83:3f:33:8d:f3:dc:a8:fb:61:7f:47:4c:16:fe:da:80:46:a1:
         ac:9f:e6:ae
-----BEGIN CERTIFICATE-----
MIID8DCCAtigAwIBAgIBATANBgkqhkiG9w0BAQsFADB6MQswCQYDVQQGEwJDTjER
MA8GA1UECAwIWmhlamlhbmcxDzANBgNVBAoMBk51b3dlaTENMAsGA1UECwwEdXJz
YTEYMBYGA1UEAwwPdXJzYS5udW93ZWkuY29tMR4wHAYJKoZIhvcNAQkBFg91cnNh
QG51b3dlaS5jb20wIBcNMjUwNDIyMDgwODA5WhgPMjEyNjAxMjMwODA4MDlaMH4x
CzAJBgNVBAYTAkNOMREwDwYDVQQIDAhaaGVqaWFuZzEPMA0GA1UECgwGTnVvd2Vp
MQ0wCwYDVQQLDAR1cnNhMRowGAYDVQQDDBFub2RlMDEubnVvd2VpLmNvbTEgMB4G
CSqGSIb3DQEJARYRbm9kZTAxQG51b3dlaS5jb20wggEiMA0GCSqGSIb3DQEBAQUA
A4IBDwAwggEKAoIBAQC4o3Fed/ie6ukPXg9gyprkTIqu0JXAm/rhhNw53s+471V+
fcJ9t3s0Y47BcD/sVSgCQXMxc3mEs/xhWRkoRMnFlO2qQ63thvfEoxcb/VEMP/Dr
LeE1N1riFNtkqEMojOP3wfR0lQF5MpSN10gqin13ndJ7+TCsJYzg/tiYB/3Q/+OF
Wnhzqp016dj5CqqqI7b2LztRq5butXGU1s4ZcArX31dvPgf4J3aMTaeyqL5/kiE+
JcMcLR1V1BCw5ycAAA6LeqUgu5IpNIymYzt+j2U6QW4ExBWGlgsW5bH0DMPNrZCF
6AxujHGqvXeXMLF31iQd+H8tLrpbQaz7hnKhFrQtAgMBAAGjezB5MAkGA1UdEwQC
MAAwLAYJYIZIAYb4QgENBB8WHU9wZW5TU0wgR2VuZXJhdGVkIENlcnRpZmljYXRl
MB0GA1UdDgQWBBTYgZyvCMXwJPg+lZsPQOWq0CcEUzAfBgNVHSMEGDAWgBQK2bUv
0pqOB08Y0Bs/WtZ18R1eeTANBgkqhkiG9w0BAQsFAAOCAQEAToDh/j0+cnbNiXHQ
tdUfgAgn6zZOfXFdZ7IXAosypk4glMXO15yd4uAB2JWBgzwupLjylRN4Kki14CoS
+kMUlMWm6UA8LpnCLGIrTwwerGOvPDspmBgb9Q7dFuAmHEXoNFF4spRmdSFrkfVl
X72uLzcMIbcricB+HwQ2hvs7ziJQFOdYBLLyiPXozESdTSeJNdCb4q8AjlnTe00l
75VmeMpL0GdPeJzkvkRfSw2lvUYCgA9/fgu7t0zKuRwn3mASrkaz0Lvw31BoOJdh
ONvTBnzSRwQY2O6k1kM07AEXQPYtUXaLwcZ16ioigz8zjfPcqPthf0dMFv7agEah
rJ/mrg==
-----END CERTIFICATE-----
