Certificate:
    Data:
        Version: 3 (0x2)
        Serial Number: 2 (0x2)
        Signature Algorithm: SM2-with-SM3
        Issuer: C=CN, ST=Zhejiang, O=Nuowei, OU=ursa_sm2, CN=ursa_sm2.nuowei.com/emailAddress=ursa_sm2@nuowei.com
        Validity
            Not Before: Apr 23 07:08:47 2025 GMT
            Not After : Jan 24 07:08:47 2126 GMT
        Subject: C=CN, ST=Zhejiang, O=Nuowei, OU=ursa_sm2, CN=user01_sm2.nuowei.com/emailAddress=user01_sm2@nuowei.com
        Subject Public Key Info:
            Public Key Algorithm: id-ecPublicKey
                Public-Key: (256 bit)
                pub:
                    04:60:53:c3:a6:32:a9:3a:3f:f1:b3:1f:0e:8d:bb:
                    c2:ec:68:c3:c1:b3:d2:e3:b5:32:1d:75:7b:08:f7:
                    8b:c9:27:ce:e4:7b:ad:28:ae:3b:82:e7:20:67:68:
                    20:25:0b:06:e2:18:bf:7a:aa:98:e6:43:3b:ef:80:
                    43:90:7f:d0:04
                ASN1 OID: SM2
        X509v3 extensions:
            X509v3 Basic Constraints: 
                CA:FALSE
            Netscape Cert Type: 
                SSL Server
            Netscape Comment: 
                OpenSSL Generated Server Certificate
            X509v3 Subject Key Identifier: 
                59:A6:C3:CF:BE:06:19:08:7C:E7:BE:A4:50:8A:53:25:9E:95:CB:1E
            X509v3 Authority Key Identifier: 
                keyid:EF:28:C8:33:8B:92:2B:45:9C:32:1A:03:3E:16:E2:AE:B8:D9:AA:9B
                DirName:/C=CN/ST=Zhejiang/O=Nuowei/OU=Certificate Authority/CN=ca.nuowei.com/emailAddress=ca@nuowei.com
                serial:02

            X509v3 Key Usage: critical
                Digital Signature, Key Encipherment
            X509v3 Extended Key Usage: 
                TLS Web Server Authentication
            X509v3 Subject Alternative Name: 
                DNS:*.baize.nuowei.com, DNS:*.scorpio.nuowei.com, DNS:*.ursa.nuowei.com
    Signature Algorithm: SM2-with-SM3
         30:46:02:21:00:96:24:25:d6:bb:5f:3f:ed:41:95:31:bc:8e:
         52:d7:01:b6:49:29:27:a1:76:2c:a9:cc:ad:a8:3e:5f:4e:24:
         8c:02:21:00:94:89:df:50:23:00:20:84:b8:6c:5c:47:94:5c:
         85:81:2e:5b:8f:ab:4f:c6:53:38:20:45:70:36:69:36:44:f5
-----BEGIN CERTIFICATE-----
MIIDoDCCA0WgAwIBAgIBAjAKBggqgRzPVQGDdTCBhjELMAkGA1UEBhMCQ04xETAP
BgNVBAgMCFpoZWppYW5nMQ8wDQYDVQQKDAZOdW93ZWkxETAPBgNVBAsMCHVyc2Ff
c20yMRwwGgYDVQQDDBN1cnNhX3NtMi5udW93ZWkuY29tMSIwIAYJKoZIhvcNAQkB
FhN1cnNhX3NtMkBudW93ZWkuY29tMCAXDTI1MDQyMzA3MDg0N1oYDzIxMjYwMTI0
MDcwODQ3WjCBijELMAkGA1UEBhMCQ04xETAPBgNVBAgMCFpoZWppYW5nMQ8wDQYD
VQQKDAZOdW93ZWkxETAPBgNVBAsMCHVyc2Ffc20yMR4wHAYDVQQDDBV1c2VyMDFf
c20yLm51b3dlaS5jb20xJDAiBgkqhkiG9w0BCQEWFXVzZXIwMV9zbTJAbnVvd2Vp
LmNvbTBZMBMGByqGSM49AgEGCCqBHM9VAYItA0IABGBTw6YyqTo/8bMfDo27wuxo
w8Gz0uO1Mh11ewj3i8knzuR7rSiuO4LnIGdoICULBuIYv3qqmOZDO++AQ5B/0ASj
ggGaMIIBljAJBgNVHRMEAjAAMBEGCWCGSAGG+EIBAQQEAwIGQDAzBglghkgBhvhC
AQ0EJhYkT3BlblNTTCBHZW5lcmF0ZWQgU2VydmVyIENlcnRpZmljYXRlMB0GA1Ud
DgQWBBRZpsPPvgYZCHznvqRQilMlnpXLHjCBtAYDVR0jBIGsMIGpgBTvKMgzi5Ir
RZwyGgM+FuKuuNmqm6GBjaSBijCBhzELMAkGA1UEBhMCQ04xETAPBgNVBAgMCFpo
ZWppYW5nMQ8wDQYDVQQKDAZOdW93ZWkxHjAcBgNVBAsMFUNlcnRpZmljYXRlIEF1
dGhvcml0eTEWMBQGA1UEAwwNY2EubnVvd2VpLmNvbTEcMBoGCSqGSIb3DQEJARYN
Y2FAbnVvd2VpLmNvbYIBAjAOBgNVHQ8BAf8EBAMCBaAwEwYDVR0lBAwwCgYIKwYB
BQUHAwEwRgYDVR0RBD8wPYISKi5iYWl6ZS5udW93ZWkuY29tghQqLnNjb3JwaW8u
bnVvd2VpLmNvbYIRKi51cnNhLm51b3dlaS5jb20wCgYIKoEcz1UBg3UDSQAwRgIh
AJYkJda7Xz/tQZUxvI5S1wG2SSknoXYsqcytqD5fTiSMAiEAlInfUCMAIIS4bFxH
lFyFgS5bj6tPxlM4IEVwNmk2RPU=
-----END CERTIFICATE-----
